target datalayout = "e-m:e-p270:32:32-p271:32:32-p272:64:64-i64:64-i128:128-f80:128-n8:16:32:64-S128"
target triple = "x86_64-pc-linux-gnu"

; Function Attrs: mustprogress nounwind uwtable
define void @_ZN13duckdb_snappy9MemCopy64EPcPKvm(ptr noundef %0, ptr noundef %1, i64 noundef %2) #0 {
  %4 = alloca ptr, align 8
  %5 = alloca ptr, align 8
  %6 = alloca i64, align 8
  %7 = alloca i32, align 4
  store ptr %0, ptr %4, align 8, !tbaa !7
  store ptr %1, ptr %5, align 8, !tbaa !30
  store i64 %2, ptr %6, align 8, !tbaa !3
  call void @llvm.lifetime.start.p0(i64 4, ptr %7) #17
  store i32 32, ptr %7, align 4, !tbaa !12
  %8 = load ptr, ptr %4, align 8, !tbaa !7
  %9 = load ptr, ptr %5, align 8, !tbaa !30
  call void @llvm.memmove.p0.p0.i64(ptr align 1 %8, ptr align 1 %9, i64 32, i1 false)
  %10 = load i64, ptr %6, align 8, !tbaa !3
  %11 = icmp ugt i64 %10, 32
  %12 = zext i1 %11 to i64
  %13 = call i64 @llvm.expect.i64(i64 %12, i64 0)
  %14 = icmp ne i64 %13, 0
  br i1 %14, label %15, label %20

15:                                               ; preds = %3
  %16 = load ptr, ptr %4, align 8, !tbaa !7
  %17 = getelementptr inbounds i8, ptr %16, i64 32
  %18 = load ptr, ptr %5, align 8, !tbaa !30
  %19 = getelementptr inbounds i8, ptr %18, i64 32
  call void @llvm.memmove.p0.p0.i64(ptr align 1 %17, ptr align 1 %19, i64 32, i1 false)
  br label %20

20:                                               ; preds = %15, %3
  call void @llvm.lifetime.end.p0(i64 4, ptr %7) #17
  ret void
}