; Function Attrs: mustprogress nofree norecurse nosync nounwind willreturn memory(argmem: readwrite) uwtable
define void @_ZN13duckdb_snappy9MemCopy64EPcPKvm(ptr noundef writeonly captures(none) initializes((0, 32)) %0, ptr noundef readonly captures(none) %1, i64 noundef %2) local_unnamed_addr #1 {
  tail call void @llvm.memmove.p0.p0.i64(ptr noundef nonnull align 1 dereferenceable(32) %0, ptr noundef nonnull align 1 dereferenceable(32) %1, i64 32, i1 false)
  %4 = icmp ugt i64 %2, 32
  br i1 %4, label %5, label %8, !prof !22

5:                                                ; preds = %3
  %6 = getelementptr inbounds nuw i8, ptr %0, i64 32
  %7 = getelementptr inbounds nuw i8, ptr %1, i64 32
  tail call void @llvm.memmove.p0.p0.i64(ptr noundef nonnull align 1 dereferenceable(32) %6, ptr noundef nonnull align 1 dereferenceable(32) %7, i64 32, i1 false)
  br label %8

8:                                                ; preds = %5, %3
  ret void
}